target datalayout = "e-m:e-p270:32:32-p271:32:32-p272:64:64-i64:64-i128:128-f80:128-n8:16:32:64-S128"
target triple = "x86_64-pc-linux-gnu"

%struct._object = type { %union.anon, ptr }
%union.anon = type { i64 }
%struct.Blake2Object = type { %struct._object, %union.anon.0, i32, i8, %struct.PyMutex }
%union.anon.0 = type { ptr }
%struct.PyMutex = type { i8 }

; Function Attrs: nounwind uwtable
define internal i32 @py_blake2_clear(ptr noundef %0) #0 {
  %2 = alloca ptr, align 8
  %3 = alloca ptr, align 8
  store ptr %0, ptr %2, align 8, !tbaa !24
  call void @llvm.lifetime.start.p0(i64 8, ptr %3) #8
  %4 = load ptr, ptr %2, align 8, !tbaa !24
  store ptr %4, ptr %3, align 8, !tbaa !3
  %5 = load ptr, ptr %3, align 8, !tbaa !3
  %6 = getelementptr inbounds nuw %struct.Blake2Object, ptr %5, i32 0, i32 2
  %7 = load i32, ptr %6, align 8, !tbaa !47
  switch i32 %7, label %56 [
    i32 3, label %8
    i32 2, label %20
    i32 1, label %32
    i32 0, label %44
  ]

8:                                                ; preds = %1
  %9 = load ptr, ptr %3, align 8, !tbaa !3
  %10 = getelementptr inbounds nuw %struct.Blake2Object, ptr %9, i32 0, i32 1
  %11 = load ptr, ptr %10, align 8, !tbaa !43
  %12 = icmp ne ptr %11, null
  br i1 %12, label %13, label %19

13:                                               ; preds = %8
  %14 = load ptr, ptr %3, align 8, !tbaa !3
  %15 = getelementptr inbounds nuw %struct.Blake2Object, ptr %14, i32 0, i32 1
  %16 = load ptr, ptr %15, align 8, !tbaa !43
  call void @python_hashlib_Hacl_Hash_Blake2b_Simd256_free(ptr noundef %16)
  %17 = load ptr, ptr %3, align 8, !tbaa !3
  %18 = getelementptr inbounds nuw %struct.Blake2Object, ptr %17, i32 0, i32 1
  store ptr null, ptr %18, align 8, !tbaa !43
  br label %19

19:                                               ; preds = %13, %8
  br label %57

20:                                               ; preds = %1
  %21 = load ptr, ptr %3, align 8, !tbaa !3
  %22 = getelementptr inbounds nuw %struct.Blake2Object, ptr %21, i32 0, i32 1
  %23 = load ptr, ptr %22, align 8, !tbaa !43
  %24 = icmp ne ptr %23, null
  br i1 %24, label %25, label %31

25:                                               ; preds = %20
  %26 = load ptr, ptr %3, align 8, !tbaa !3
  %27 = getelementptr inbounds nuw %struct.Blake2Object, ptr %26, i32 0, i32 1
  %28 = load ptr, ptr %27, align 8, !tbaa !43
  call void @python_hashlib_Hacl_Hash_Blake2s_Simd128_free(ptr noundef %28)
  %29 = load ptr, ptr %3, align 8, !tbaa !3
  %30 = getelementptr inbounds nuw %struct.Blake2Object, ptr %29, i32 0, i32 1
  store ptr null, ptr %30, align 8, !tbaa !43
  br label %31

31:                                               ; preds = %25, %20
  br label %57

32:                                               ; preds = %1
  %33 = load ptr, ptr %3, align 8, !tbaa !3
  %34 = getelementptr inbounds nuw %struct.Blake2Object, ptr %33, i32 0, i32 1
  %35 = load ptr, ptr %34, align 8, !tbaa !43
  %36 = icmp ne ptr %35, null
  br i1 %36, label %37, label %43

37:                                               ; preds = %32
  %38 = load ptr, ptr %3, align 8, !tbaa !3
  %39 = getelementptr inbounds nuw %struct.Blake2Object, ptr %38, i32 0, i32 1
  %40 = load ptr, ptr %39, align 8, !tbaa !43
  call void @python_hashlib_Hacl_Hash_Blake2b_free(ptr noundef %40)
  %41 = load ptr, ptr %3, align 8, !tbaa !3
  %42 = getelementptr inbounds nuw %struct.Blake2Object, ptr %41, i32 0, i32 1
  store ptr null, ptr %42, align 8, !tbaa !43
  br label %43

43:                                               ; preds = %37, %32
  br label %57

44:                                               ; preds = %1
  %45 = load ptr, ptr %3, align 8, !tbaa !3
  %46 = getelementptr inbounds nuw %struct.Blake2Object, ptr %45, i32 0, i32 1
  %47 = load ptr, ptr %46, align 8, !tbaa !43
  %48 = icmp ne ptr %47, null
  br i1 %48, label %49, label %55

49:                                               ; preds = %44
  %50 = load ptr, ptr %3, align 8, !tbaa !3
  %51 = getelementptr inbounds nuw %struct.Blake2Object, ptr %50, i32 0, i32 1
  %52 = load ptr, ptr %51, align 8, !tbaa !43
  call void @python_hashlib_Hacl_Hash_Blake2s_free(ptr noundef %52)
  %53 = load ptr, ptr %3, align 8, !tbaa !3
  %54 = getelementptr inbounds nuw %struct.Blake2Object, ptr %53, i32 0, i32 1
  store ptr null, ptr %54, align 8, !tbaa !43
  br label %55

55:                                               ; preds = %49, %44
  br label %57

56:                                               ; preds = %1
  unreachable

57:                                               ; preds = %55, %43, %31, %19
  call void @llvm.lifetime.end.p0(i64 8, ptr %3) #8
  ret i32 0
}