; Function Attrs: nounwind uwtable
define internal noundef i32 @py_blake2_clear(ptr noundef captures(none) %0) #2 {
  %2 = getelementptr inbounds nuw i8, ptr %0, i64 24
  %3 = load i32, ptr %2, align 8, !tbaa !42
  %4 = getelementptr inbounds nuw i8, ptr %0, i64 16
  %5 = load ptr, ptr %4, align 8, !tbaa !31
  %.not19 = icmp eq ptr %5, null
  switch i32 %3, label %14 [
    i32 3, label %6
    i32 2, label %8
    i32 1, label %10
    i32 0, label %12
  ]

6:                                                ; preds = %1
  br i1 %.not19, label %15, label %7

7:                                                ; preds = %6
  tail call void @python_hashlib_Hacl_Hash_Blake2b_Simd256_free(ptr noundef nonnull %5) #9
  br label %.sink.split

8:                                                ; preds = %1
  br i1 %.not19, label %15, label %9

9:                                                ; preds = %8
  tail call void @python_hashlib_Hacl_Hash_Blake2s_Simd128_free(ptr noundef nonnull %5) #9
  br label %.sink.split

10:                                               ; preds = %1
  br i1 %.not19, label %15, label %11

11:                                               ; preds = %10
  tail call void @python_hashlib_Hacl_Hash_Blake2b_free(ptr noundef nonnull %5) #9
  br label %.sink.split

12:                                               ; preds = %1
  br i1 %.not19, label %15, label %13

13:                                               ; preds = %12
  tail call void @python_hashlib_Hacl_Hash_Blake2s_free(ptr noundef nonnull %5) #9
  br label %.sink.split

14:                                               ; preds = %1
  unreachable

.sink.split:                                      ; preds = %7, %9, %11, %13
  store ptr null, ptr %4, align 8, !tbaa !31
  br label %15

15:                                               ; preds = %.sink.split, %12, %10, %8, %6
  ret i32 0
}